target datalayout = "e-m:e-p270:32:32-p271:32:32-p272:64:64-i64:64-i128:128-f80:128-n8:16:32:64-S128"
target triple = "x86_64-pc-linux-gnu"

%"class.std::__cxx11::basic_string" = type { %"struct.std::__cxx11::basic_string<char>::_Alloc_hider", i64, %union.anon }
%"struct.std::__cxx11::basic_string<char>::_Alloc_hider" = type { ptr }
%union.anon = type { i64, [8 x i8] }
%"struct.boost::unit_test::(anonymous namespace)::unit_test_log_impl" = type { %"class.std::vector", %"class.std::vector.0", %"struct.boost::unit_test::log_entry_data", %"struct.boost::unit_test::log_checkpoint_data" }
%"class.std::vector" = type { %"struct.std::_Vector_base" }
%"struct.std::_Vector_base" = type { %"struct.std::_Vector_base<boost::unit_test::(anonymous namespace)::unit_test_log_data_helper_impl, std::allocator<boost::unit_test::(anonymous namespace)::unit_test_log_data_helper_impl>>::_Vector_impl" }
%"struct.std::_Vector_base<boost::unit_test::(anonymous namespace)::unit_test_log_data_helper_impl, std::allocator<boost::unit_test::(anonymous namespace)::unit_test_log_data_helper_impl>>::_Vector_impl" = type { %"struct.std::_Vector_base<boost::unit_test::(anonymous namespace)::unit_test_log_data_helper_impl, std::allocator<boost::unit_test::(anonymous namespace)::unit_test_log_data_helper_impl>>::_Vector_impl_data" }
%"struct.std::_Vector_base<boost::unit_test::(anonymous namespace)::unit_test_log_data_helper_impl, std::allocator<boost::unit_test::(anonymous namespace)::unit_test_log_data_helper_impl>>::_Vector_impl_data" = type { ptr, ptr, ptr }
%"class.std::vector.0" = type { %"struct.std::_Vector_base.1" }
%"struct.std::_Vector_base.1" = type { %"struct.std::_Vector_base<boost::unit_test::(anonymous namespace)::unit_test_log_data_helper_impl *, std::allocator<boost::unit_test::(anonymous namespace)::unit_test_log_data_helper_impl *>>::_Vector_impl" }
%"struct.std::_Vector_base<boost::unit_test::(anonymous namespace)::unit_test_log_data_helper_impl *, std::allocator<boost::unit_test::(anonymous namespace)::unit_test_log_data_helper_impl *>>::_Vector_impl" = type { %"struct.std::_Vector_base<boost::unit_test::(anonymous namespace)::unit_test_log_data_helper_impl *, std::allocator<boost::unit_test::(anonymous namespace)::unit_test_log_data_helper_impl *>>::_Vector_impl_data" }
%"struct.std::_Vector_base<boost::unit_test::(anonymous namespace)::unit_test_log_data_helper_impl *, std::allocator<boost::unit_test::(anonymous namespace)::unit_test_log_data_helper_impl *>>::_Vector_impl_data" = type { ptr, ptr, ptr }
%"struct.boost::unit_test::log_entry_data" = type <{ %"class.std::__cxx11::basic_string", i64, i32, [4 x i8] }>
%"struct.boost::unit_test::log_checkpoint_data" = type { %"class.boost::unit_test::basic_cstring", i64, %"class.std::__cxx11::basic_string" }
%"class.boost::unit_test::basic_cstring" = type { ptr, ptr }

@__dso_handle = external hidden global i8
@_ZZN5boost9unit_test12_GLOBAL__N_110s_log_implEvE8the_inst = internal global %"struct.boost::unit_test::(anonymous namespace)::unit_test_log_impl" zeroinitializer, align 8
@_ZGVZN5boost9unit_test12_GLOBAL__N_110s_log_implEvE8the_inst = internal global i64 0, align 8

; Function Attrs: mustprogress nounwind uwtable
define available_externally noundef i64 @_ZNKSt7__cxx1112basic_stringIcSt11char_traitsIcESaIcEE4sizeEv(ptr noundef nonnull align 8 dereferenceable(32) %0) #4 align 2 {
  %2 = alloca ptr, align 8
  store ptr %0, ptr %2, align 8, !tbaa !3
  %3 = load ptr, ptr %2, align 8
  %4 = getelementptr inbounds nuw %"class.std::__cxx11::basic_string", ptr %3, i32 0, i32 1
  %5 = load i64, ptr %4, align 8, !tbaa !143
  ret i64 %5
}

; Function Attrs: mustprogress uwtable
define available_externally noundef nonnull align 8 dereferenceable(32) ptr @_ZNSt7__cxx1112basic_stringIcSt11char_traitsIcESaIcEE6assignEPKcm(ptr noundef nonnull align 8 dereferenceable(32) %0, ptr noundef %1, i64 noundef %2) #5 align 2 {
  %4 = alloca ptr, align 8
  %5 = alloca ptr, align 8
  %6 = alloca i64, align 8
  store ptr %0, ptr %4, align 8, !tbaa !3
  store ptr %1, ptr %5, align 8, !tbaa !3
  store i64 %2, ptr %6, align 8, !tbaa !50
  %7 = load ptr, ptr %4, align 8
  %8 = call noundef i64 @_ZNKSt7__cxx1112basic_stringIcSt11char_traitsIcESaIcEE4sizeEv(ptr noundef nonnull align 8 dereferenceable(32) %7) #3
  %9 = load ptr, ptr %5, align 8, !tbaa !3
  %10 = load i64, ptr %6, align 8, !tbaa !50
  %11 = call noundef nonnull align 8 dereferenceable(32) ptr @_ZNSt7__cxx1112basic_stringIcSt11char_traitsIcESaIcEE10_M_replaceEmmPKcm(ptr noundef nonnull align 8 dereferenceable(32) %7, i64 noundef 0, i64 noundef %8, ptr noundef %9, i64 noundef %10)
  ret ptr %11
}

; Function Attrs: inlinehint mustprogress nounwind uwtable
define linkonce_odr hidden noundef i64 @_ZNK5boost9unit_test13basic_cstringIKcE4sizeEv(ptr noundef nonnull align 8 dereferenceable(16) %0) #6 comdat align 2 {
  %2 = alloca ptr, align 8
  store ptr %0, ptr %2, align 8, !tbaa !3
  %3 = load ptr, ptr %2, align 8
  %4 = getelementptr inbounds nuw %"class.boost::unit_test::basic_cstring", ptr %3, i32 0, i32 1
  %5 = load ptr, ptr %4, align 8, !tbaa !31
  %6 = getelementptr inbounds nuw %"class.boost::unit_test::basic_cstring", ptr %3, i32 0, i32 0
  %7 = load ptr, ptr %6, align 8, !tbaa !30
  %8 = ptrtoint ptr %5 to i64
  %9 = ptrtoint ptr %7 to i64
  %10 = sub i64 %8, %9
  ret i64 %10
}

; Function Attrs: inlinehint mustprogress nounwind uwtable
define linkonce_odr hidden noundef ptr @_ZN5boost9unit_test13basic_cstringIKcE5beginEv(ptr noundef nonnull align 8 dereferenceable(16) %0) #6 comdat align 2 {
  %2 = alloca ptr, align 8
  store ptr %0, ptr %2, align 8, !tbaa !3
  %3 = load ptr, ptr %2, align 8
  %4 = getelementptr inbounds nuw %"class.boost::unit_test::basic_cstring", ptr %3, i32 0, i32 0
  %5 = load ptr, ptr %4, align 8, !tbaa !30
  ret ptr %5
}

; Function Attrs: inlinehint mustprogress nounwind uwtable
define linkonce_odr hidden noundef nonnull align 8 dereferenceable(16) ptr @_ZN5boost9unit_test13basic_cstringIKcEaSERKS3_(ptr noundef nonnull align 8 dereferenceable(16) %0, ptr noundef nonnull align 8 dereferenceable(16) %1) #6 comdat align 2 {
  %3 = alloca ptr, align 8
  %4 = alloca ptr, align 8
  store ptr %0, ptr %3, align 8, !tbaa !3
  store ptr %1, ptr %4, align 8, !tbaa !3
  %5 = load ptr, ptr %3, align 8
  %6 = load ptr, ptr %4, align 8, !tbaa !3
  %7 = getelementptr inbounds nuw %"class.boost::unit_test::basic_cstring", ptr %6, i32 0, i32 0
  %8 = load ptr, ptr %7, align 8, !tbaa !30
  %9 = getelementptr inbounds nuw %"class.boost::unit_test::basic_cstring", ptr %5, i32 0, i32 0
  store ptr %8, ptr %9, align 8, !tbaa !30
  %10 = load ptr, ptr %4, align 8, !tbaa !3
  %11 = getelementptr inbounds nuw %"class.boost::unit_test::basic_cstring", ptr %10, i32 0, i32 1
  %12 = load ptr, ptr %11, align 8, !tbaa !31
  %13 = getelementptr inbounds nuw %"class.boost::unit_test::basic_cstring", ptr %5, i32 0, i32 1
  store ptr %12, ptr %13, align 8, !tbaa !31
  ret ptr %5
}

; Function Attrs: inlinehint mustprogress uwtable
define linkonce_odr hidden void @_ZN5boost9unit_test9assign_opIcKcEEvRNSt7__cxx1112basic_stringIT_St11char_traitsIS5_ESaIS5_EEENS0_13basic_cstringIT0_EEi(ptr noundef nonnull align 8 dereferenceable(32) %0, ptr noundef %1, i32 noundef %2) #9 comdat {
  %4 = alloca ptr, align 8
  %5 = alloca ptr, align 8
  %6 = alloca i32, align 4
  store ptr %0, ptr %4, align 8, !tbaa !3
  store ptr %1, ptr %5, align 8, !tbaa !3
  store i32 %2, ptr %6, align 4, !tbaa !86
  %7 = load ptr, ptr %4, align 8, !tbaa !3
  %8 = call noundef ptr @_ZN5boost9unit_test13basic_cstringIKcE5beginEv(ptr noundef nonnull align 8 dereferenceable(16) %1)
  %9 = call noundef i64 @_ZNK5boost9unit_test13basic_cstringIKcE4sizeEv(ptr noundef nonnull align 8 dereferenceable(16) %1)
  %10 = call noundef nonnull align 8 dereferenceable(32) ptr @_ZNSt7__cxx1112basic_stringIcSt11char_traitsIcESaIcEE6assignEPKcm(ptr noundef nonnull align 8 dereferenceable(32) %7, ptr noundef %8, i64 noundef %9)
  ret void
}

; Function Attrs: mustprogress uwtable
define internal void @_ZN5boost9unit_test12_GLOBAL__N_118unit_test_log_impl14set_checkpointENS0_13basic_cstringIKcEEmS5_(ptr noundef nonnull align 8 dereferenceable(152) %0, ptr noundef %1, i64 noundef %2, ptr noundef %3) #5 align 2 {
  %5 = alloca ptr, align 8
  %6 = alloca ptr, align 8
  %7 = alloca i64, align 8
  %8 = alloca ptr, align 8
  %9 = alloca %"class.boost::unit_test::basic_cstring", align 8
  store ptr %0, ptr %5, align 8, !tbaa !3
  store ptr %1, ptr %6, align 8, !tbaa !3
  store i64 %2, ptr %7, align 8, !tbaa !50
  store ptr %3, ptr %8, align 8, !tbaa !3
  %10 = load ptr, ptr %5, align 8
  %11 = getelementptr inbounds nuw %"struct.boost::unit_test::(anonymous namespace)::unit_test_log_impl", ptr %10, i32 0, i32 3
  %12 = getelementptr inbounds nuw %"struct.boost::unit_test::log_checkpoint_data", ptr %11, i32 0, i32 2
  call void @_ZN5boost9unit_test13basic_cstringIKcEC2ERKS3_(ptr noundef nonnull align 8 dereferenceable(16) %9, ptr noundef nonnull align 8 dereferenceable(16) %3)
  call void @_ZN5boost9unit_test9assign_opIcKcEEvRNSt7__cxx1112basic_stringIT_St11char_traitsIS5_ESaIS5_EEENS0_13basic_cstringIT0_EEi(ptr noundef nonnull align 8 dereferenceable(32) %12, ptr noundef %9, i32 noundef 0)
  %13 = getelementptr inbounds nuw %"struct.boost::unit_test::(anonymous namespace)::unit_test_log_impl", ptr %10, i32 0, i32 3
  %14 = getelementptr inbounds nuw %"struct.boost::unit_test::log_checkpoint_data", ptr %13, i32 0, i32 0
  %15 = call noundef nonnull align 8 dereferenceable(16) ptr @_ZN5boost9unit_test13basic_cstringIKcEaSERKS3_(ptr noundef nonnull align 8 dereferenceable(16) %14, ptr noundef nonnull align 8 dereferenceable(16) %1)
  %16 = load i64, ptr %7, align 8, !tbaa !50
  %17 = getelementptr inbounds nuw %"struct.boost::unit_test::(anonymous namespace)::unit_test_log_impl", ptr %10, i32 0, i32 3
  %18 = getelementptr inbounds nuw %"struct.boost::unit_test::log_checkpoint_data", ptr %17, i32 0, i32 1
  store i64 %16, ptr %18, align 8, !tbaa !75
  ret void
}

; Function Attrs: inlinehint mustprogress nounwind uwtable
define linkonce_odr hidden void @_ZN5boost9unit_test13basic_cstringIKcEC2ERKS3_(ptr noundef nonnull align 8 dereferenceable(16) %0, ptr noundef nonnull align 8 dereferenceable(16) %1) unnamed_addr #6 comdat align 2 {
  %3 = alloca ptr, align 8
  %4 = alloca ptr, align 8
  store ptr %0, ptr %3, align 8, !tbaa !3
  store ptr %1, ptr %4, align 8, !tbaa !3
  %5 = load ptr, ptr %3, align 8
  %6 = getelementptr inbounds nuw %"class.boost::unit_test::basic_cstring", ptr %5, i32 0, i32 0
  %7 = load ptr, ptr %4, align 8, !tbaa !3
  %8 = getelementptr inbounds nuw %"class.boost::unit_test::basic_cstring", ptr %7, i32 0, i32 0
  %9 = load ptr, ptr %8, align 8, !tbaa !30
  store ptr %9, ptr %6, align 8, !tbaa !30
  %10 = getelementptr inbounds nuw %"class.boost::unit_test::basic_cstring", ptr %5, i32 0, i32 1
  %11 = load ptr, ptr %4, align 8, !tbaa !3
  %12 = getelementptr inbounds nuw %"class.boost::unit_test::basic_cstring", ptr %11, i32 0, i32 1
  %13 = load ptr, ptr %12, align 8, !tbaa !31
  store ptr %13, ptr %10, align 8, !tbaa !31
  ret void
}

; Function Attrs: mustprogress uwtable
define internal noundef nonnull align 8 dereferenceable(152) ptr @_ZN5boost9unit_test12_GLOBAL__N_110s_log_implEv() #5 personality ptr @__gxx_personality_v0 {
  %1 = alloca ptr, align 8
  %2 = alloca i32, align 4
  %3 = load atomic i8, ptr @_ZGVZN5boost9unit_test12_GLOBAL__N_110s_log_implEvE8the_inst acquire, align 8
  %4 = icmp eq i8 %3, 0
  br i1 %4, label %5, label %11, !prof !7

5:                                                ; preds = %0
  %6 = call i32 @__cxa_guard_acquire(ptr @_ZGVZN5boost9unit_test12_GLOBAL__N_110s_log_implEvE8the_inst) #3
  %7 = icmp ne i32 %6, 0
  br i1 %7, label %8, label %11

8:                                                ; preds = %5
  invoke void @_ZN5boost9unit_test12_GLOBAL__N_118unit_test_log_implC2Ev(ptr noundef nonnull align 8 dereferenceable(152) @_ZZN5boost9unit_test12_GLOBAL__N_110s_log_implEvE8the_inst)
          to label %9 unwind label %12

9:                                                ; preds = %8
  %10 = call i32 @__cxa_atexit(ptr @_ZN5boost9unit_test12_GLOBAL__N_118unit_test_log_implD2Ev, ptr @_ZZN5boost9unit_test12_GLOBAL__N_110s_log_implEvE8the_inst, ptr @__dso_handle) #3
  call void @__cxa_guard_release(ptr @_ZGVZN5boost9unit_test12_GLOBAL__N_110s_log_implEvE8the_inst) #3
  br label %11

11:                                               ; preds = %9, %5, %0
  ret ptr @_ZZN5boost9unit_test12_GLOBAL__N_110s_log_implEvE8the_inst

12:                                               ; preds = %8
  %13 = landingpad { ptr, i32 }
          cleanup
  %14 = extractvalue { ptr, i32 } %13, 0
  store ptr %14, ptr %1, align 8
  %15 = extractvalue { ptr, i32 } %13, 1
  store i32 %15, ptr %2, align 4
  call void @__cxa_guard_abort(ptr @_ZGVZN5boost9unit_test12_GLOBAL__N_110s_log_implEvE8the_inst) #3
  br label %16

16:                                               ; preds = %12
  %17 = load ptr, ptr %1, align 8
  %18 = load i32, ptr %2, align 4
  %19 = insertvalue { ptr, i32 } poison, ptr %17, 0
  %20 = insertvalue { ptr, i32 } %19, i32 %18, 1
  resume { ptr, i32 } %20
}

; Function Attrs: mustprogress uwtable
define void @_ZN5boost9unit_test15unit_test_log_t14set_checkpointENS0_13basic_cstringIKcEEmS4_(ptr noundef nonnull align 8 dereferenceable(8) %0, ptr noundef %1, i64 noundef %2, ptr noundef %3) #5 align 2 {
  %5 = alloca ptr, align 8
  %6 = alloca ptr, align 8
  %7 = alloca i64, align 8
  %8 = alloca ptr, align 8
  %9 = alloca %"class.boost::unit_test::basic_cstring", align 8
  %10 = alloca %"class.boost::unit_test::basic_cstring", align 8
  store ptr %0, ptr %5, align 8, !tbaa !3
  store ptr %1, ptr %6, align 8, !tbaa !3
  store i64 %2, ptr %7, align 8, !tbaa !50
  store ptr %3, ptr %8, align 8, !tbaa !3
  %11 = call noundef nonnull align 8 dereferenceable(152) ptr @_ZN5boost9unit_test12_GLOBAL__N_110s_log_implEv()
  call void @_ZN5boost9unit_test13basic_cstringIKcEC2ERKS3_(ptr noundef nonnull align 8 dereferenceable(16) %9, ptr noundef nonnull align 8 dereferenceable(16) %1)
  %12 = load i64, ptr %7, align 8, !tbaa !50
  call void @_ZN5boost9unit_test13basic_cstringIKcEC2ERKS3_(ptr noundef nonnull align 8 dereferenceable(16) %10, ptr noundef nonnull align 8 dereferenceable(16) %3)
  call void @_ZN5boost9unit_test12_GLOBAL__N_118unit_test_log_impl14set_checkpointENS0_13basic_cstringIKcEEmS5_(ptr noundef nonnull align 8 dereferenceable(152) %11, ptr noundef %9, i64 noundef %12, ptr noundef %10)
  ret void
}